; Function Attrs: mustprogress uwtable
define hidden noundef zeroext i1 @_ZN4lean21is_numeral_const_nameERKNS_4nameE(ptr noundef nonnull readonly align 8 captures(none) dereferenceable(8) %0) local_unnamed_addr #0 {
  %2 = tail call noundef nonnull align 8 dereferenceable(8) ptr @_ZN4lean22get_has_zero_zero_nameEv()
  %3 = load ptr, ptr %0, align 8, !tbaa !3
  %4 = load ptr, ptr %2, align 8, !tbaa !3
  %5 = tail call zeroext i8 @lean_name_eq(ptr noundef %3, ptr noundef %4)
  %.not = icmp eq i8 %5, 0
  br i1 %.not, label %6, label %22

6:                                                ; preds = %1
  %7 = tail call noundef nonnull align 8 dereferenceable(8) ptr @_ZN4lean20get_has_one_one_nameEv()
  %8 = load ptr, ptr %0, align 8, !tbaa !3
  %9 = load ptr, ptr %7, align 8, !tbaa !3
  %10 = tail call zeroext i8 @lean_name_eq(ptr noundef %8, ptr noundef %9)
  %.not4 = icmp eq i8 %10, 0
  br i1 %.not4, label %11, label %22

11:                                               ; preds = %6
  %12 = tail call noundef nonnull align 8 dereferenceable(8) ptr @_ZN4lean13get_bit0_nameEv()
  %13 = load ptr, ptr %0, align 8, !tbaa !3
  %14 = load ptr, ptr %12, align 8, !tbaa !3
  %15 = tail call zeroext i8 @lean_name_eq(ptr noundef %13, ptr noundef %14)
  %.not5 = icmp eq i8 %15, 0
  br i1 %.not5, label %16, label %22

16:                                               ; preds = %11
  %17 = tail call noundef nonnull align 8 dereferenceable(8) ptr @_ZN4lean13get_bit1_nameEv()
  %18 = load ptr, ptr %0, align 8, !tbaa !3
  %19 = load ptr, ptr %17, align 8, !tbaa !3
  %20 = tail call zeroext i8 @lean_name_eq(ptr noundef %18, ptr noundef %19)
  %21 = icmp ne i8 %20, 0
  br label %22

22:                                               ; preds = %16, %11, %6, %1
  %23 = phi i1 [ true, %11 ], [ true, %6 ], [ true, %1 ], [ %21, %16 ]
  ret i1 %23
}